; Function Attrs: mustprogress nounwind uwtable
define hidden void @_ZN12outputStream5stampEbPKcS1_(ptr noundef nonnull align 8 dereferenceable(56) %0, i1 noundef zeroext %1, ptr noundef %2, ptr noundef %3) local_unnamed_addr #0 align 2 {
  br i1 %1, label %5, label %41

5:                                                ; preds = %4
  %6 = tail call i64 @strlen(ptr noundef nonnull dereferenceable(1) %2) #22
  %7 = getelementptr inbounds i8, ptr %0, i64 12
  %8 = load i8, ptr %7, align 4
  %9 = trunc i8 %8 to i1
  %10 = getelementptr inbounds i8, ptr %0, i64 16
  %11 = load i32, ptr %10, align 8
  %12 = icmp eq i32 %11, 0
  %or.cond.i.i = select i1 %9, i1 %12, i1 false
  %13 = getelementptr inbounds i8, ptr %0, i64 8
  %14 = load i32, ptr %13, align 8
  %15 = icmp sgt i32 %14, 0
  %or.cond6.i.i = select i1 %or.cond.i.i, i1 %15, i1 false
  br i1 %or.cond6.i.i, label %.preheader.i.i.i.i, label %_ZN12outputStream9print_rawEPKc.exit

.preheader.i.i.i.i:                               ; preds = %5, %.preheader.i.i.i.i
  %.0.i.i.i.i = phi i32 [ %21, %.preheader.i.i.i.i ], [ %14, %5 ]
  %16 = tail call i32 @llvm.umin.i32(i32 %.0.i.i.i.i, i32 8)
  %17 = zext nneg i32 %16 to i64
  %18 = load ptr, ptr %0, align 8
  %19 = getelementptr inbounds i8, ptr %18, i64 8
  %20 = load ptr, ptr %19, align 8
  tail call void %20(ptr noundef nonnull align 8 dereferenceable(56) %0, ptr noundef nonnull @.str.4, i64 noundef %17) #21
  %21 = sub nsw i32 %.0.i.i.i.i, %16
  %.old1.i.i.i.i = icmp sgt i32 %21, 0
  br i1 %.old1.i.i.i.i, label %.preheader.i.i.i.i, label %_ZN12outputStream9print_rawEPKc.exit

_ZN12outputStream9print_rawEPKc.exit:             ; preds = %.preheader.i.i.i.i, %5
  %22 = load ptr, ptr %0, align 8
  %23 = getelementptr inbounds i8, ptr %22, i64 8
  %24 = load ptr, ptr %23, align 8
  tail call void %24(ptr noundef nonnull align 8 dereferenceable(56) %0, ptr noundef %2, i64 noundef %6) #21
  tail call void @_ZN12outputStream5stampEv(ptr noundef nonnull align 8 dereferenceable(56) %0)
  %25 = tail call i64 @strlen(ptr noundef nonnull dereferenceable(1) %3) #22
  %26 = load i8, ptr %7, align 4
  %27 = trunc i8 %26 to i1
  %28 = load i32, ptr %10, align 8
  %29 = icmp eq i32 %28, 0
  %or.cond.i.i3 = select i1 %27, i1 %29, i1 false
  %30 = load i32, ptr %13, align 8
  %31 = icmp sgt i32 %30, 0
  %or.cond6.i.i4 = select i1 %or.cond.i.i3, i1 %31, i1 false
  br i1 %or.cond6.i.i4, label %.preheader.i.i.i.i5, label %_ZN12outputStream9print_rawEPKc.exit8

.preheader.i.i.i.i5:                              ; preds = %_ZN12outputStream9print_rawEPKc.exit, %.preheader.i.i.i.i5
  %.0.i.i.i.i6 = phi i32 [ %37, %.preheader.i.i.i.i5 ], [ %30, %_ZN12outputStream9print_rawEPKc.exit ]
  %32 = tail call i32 @llvm.umin.i32(i32 %.0.i.i.i.i6, i32 8)
  %33 = zext nneg i32 %32 to i64
  %34 = load ptr, ptr %0, align 8
  %35 = getelementptr inbounds i8, ptr %34, i64 8
  %36 = load ptr, ptr %35, align 8
  tail call void %36(ptr noundef nonnull align 8 dereferenceable(56) %0, ptr noundef nonnull @.str.4, i64 noundef %33) #21
  %37 = sub nsw i32 %.0.i.i.i.i6, %32
  %.old1.i.i.i.i7 = icmp sgt i32 %37, 0
  br i1 %.old1.i.i.i.i7, label %.preheader.i.i.i.i5, label %_ZN12outputStream9print_rawEPKc.exit8

_ZN12outputStream9print_rawEPKc.exit8:            ; preds = %.preheader.i.i.i.i5, %_ZN12outputStream9print_rawEPKc.exit
  %38 = load ptr, ptr %0, align 8
  %39 = getelementptr inbounds i8, ptr %38, i64 8
  %40 = load ptr, ptr %39, align 8
  tail call void %40(ptr noundef nonnull align 8 dereferenceable(56) %0, ptr noundef %3, i64 noundef %25) #21
  br label %41

41:                                               ; preds = %4, %_ZN12outputStream9print_rawEPKc.exit8
  ret void
}